; Function Attrs: mustprogress nofree norecurse nounwind willreturn memory(argmem: readwrite) uwtable
define dso_local void @_ZN2EA4StdC8CallbackC2Ev(ptr noundef nonnull align 8 dereferenceable(80) %this) unnamed_addr #0 align 2 {
entry:
  store ptr getelementptr inbounds ({ [4 x ptr] }, ptr @_ZTVN2EA4StdC8CallbackE, i64 0, i32 0, i64 2), ptr %this, align 8
  %mPeriod = getelementptr inbounds i8, ptr %this, i64 8
  store i64 1000000000, ptr %mPeriod, align 8
  %mPrecision = getelementptr inbounds i8, ptr %this, i64 16
  store i64 500000, ptr %mPrecision, align 8
  %mpCallbackManager = getelementptr inbounds i8, ptr %this, i64 24
  %mpFunction = getelementptr inbounds i8, ptr %this, i64 32
  %mpFunctionArg = getelementptr inbounds i8, ptr %this, i64 40
  %mbStarted = getelementptr inbounds i8, ptr %this, i64 52
  tail call void @llvm.memset.p0.i64(ptr noundef nonnull align 8 dereferenceable(28) %mpCallbackManager, i8 0, i64 28, i1 false)
  %0 = atomicrmw xchg ptr %mbStarted, i32 0 seq_cst, align 4
  %mbOneShot = getelementptr inbounds i8, ptr %this, i64 56
  store i8 0, ptr %mbOneShot, align 8
  %mbEnableRefCount = getelementptr inbounds i8, ptr %this, i64 57
  store i8 0, ptr %mbEnableRefCount, align 1
  %mNextCallbackEvent = getelementptr inbounds i8, ptr %this, i64 64
  tail call void @llvm.memset.p0.i64(ptr noundef nonnull align 8 dereferenceable(16) %mNextCallbackEvent, i8 0, i64 16, i1 false)
  store ptr @_ZN2EA4StdCL15DefaultCallbackEPNS0_8CallbackEPvmm, ptr %mpFunction, align 8
  store ptr %this, ptr %mpFunctionArg, align 8
  ret void
}